target datalayout = "e-m:e-p270:32:32-p271:32:32-p272:64:64-i64:64-i128:128-f80:128-n8:16:32:64-S128"
target triple = "x86_64-unknown-linux-gnu"

%"struct.EA::Thread::ThreadTime" = type { %struct.timespec }
%struct.timespec = type { i64, i64 }

; Function Attrs: mustprogress nounwind uwtable
define linkonce_odr dso_local void @_ZN2EA6Thread10ThreadTimeC2ERKl(ptr noundef nonnull align 8 dereferenceable(16) %this, ptr noundef nonnull align 8 dereferenceable(8) %nMilliseconds) unnamed_addr #1 comdat align 2 {
entry:
  %this.addr = alloca ptr, align 8
  %nMilliseconds.addr = alloca ptr, align 8
  store ptr %this, ptr %this.addr, align 8
  store ptr %nMilliseconds, ptr %nMilliseconds.addr, align 8
  %this1 = load ptr, ptr %this.addr, align 8
  %0 = load ptr, ptr %nMilliseconds.addr, align 8
  %1 = load i64, ptr %0, align 8
  %div = sdiv i64 %1, 1000
  %tv_sec = getelementptr inbounds %struct.timespec, ptr %this1, i32 0, i32 0
  store i64 %div, ptr %tv_sec, align 8
  %2 = load ptr, ptr %nMilliseconds.addr, align 8
  %3 = load i64, ptr %2, align 8
  %tv_sec2 = getelementptr inbounds %struct.timespec, ptr %this1, i32 0, i32 0
  %4 = load i64, ptr %tv_sec2, align 8
  %mul = mul nsw i64 %4, 1000
  %sub = sub nsw i64 %3, %mul
  %mul3 = mul nsw i64 %sub, 1000000
  %tv_nsec = getelementptr inbounds %struct.timespec, ptr %this1, i32 0, i32 1
  store i64 %mul3, ptr %tv_nsec, align 8
  ret void
}

; Function Attrs: mustprogress uwtable
define dso_local void @_ZN2EA8UnitTest11ThreadSleepEf(float noundef %fTimeMilliseconds) #2 {
entry:
  %fTimeMilliseconds.addr = alloca float, align 4
  %ref.tmp = alloca %"struct.EA::Thread::ThreadTime", align 8
  %ref.tmp1 = alloca i64, align 8
  store float %fTimeMilliseconds, ptr %fTimeMilliseconds.addr, align 4
  %0 = load float, ptr %fTimeMilliseconds.addr, align 4
  %conv = fptosi float %0 to i32
  %conv2 = sext i32 %conv to i64
  store i64 %conv2, ptr %ref.tmp1, align 8
  call void @_ZN2EA6Thread10ThreadTimeC2ERKl(ptr noundef nonnull align 8 dereferenceable(16) %ref.tmp, ptr noundef nonnull align 8 dereferenceable(8) %ref.tmp1)
  call void @_ZN2EA6Thread11ThreadSleepERKNS0_10ThreadTimeE(ptr noundef nonnull align 8 dereferenceable(16) %ref.tmp)
  ret void
}