; Function Attrs: mustprogress uwtable
define dso_local void @_ZN2EA8UnitTest11ThreadSleepEf(float noundef %fTimeMilliseconds) local_unnamed_addr #0 {
entry:
  %ref.tmp = alloca %"struct.EA::Thread::ThreadTime", align 8
  %conv = fptosi float %fTimeMilliseconds to i32
  %conv2 = sext i32 %conv to i64
  %div.i2 = sdiv i32 %conv, 1000
  %div.i.sext = sext i32 %div.i2 to i64
  store i64 %div.i.sext, ptr %ref.tmp, align 8
  %mul.neg.i = mul nsw i64 %div.i.sext, -1000
  %sub.i = add nsw i64 %mul.neg.i, %conv2
  %mul3.i = mul nsw i64 %sub.i, 1000000
  %tv_nsec.i = getelementptr inbounds i8, ptr %ref.tmp, i64 8
  store i64 %mul3.i, ptr %tv_nsec.i, align 8
  call void @_ZN2EA6Thread11ThreadSleepERKNS0_10ThreadTimeE(ptr noundef nonnull align 8 dereferenceable(16) %ref.tmp)
  ret void
}